# SymbolsHelper-Confirmed: 16.04.3-0neon amd64
libminuetinterfaces.so.0 libminuetinterfaces0 #MINVER#
 _ZN6Minuet13ISoundBackend11qt_metacallEN11QMetaObject4CallEiPPv@Base 16.04.3-0neon
 _ZN6Minuet13ISoundBackend11qt_metacastEPKc@Base 16.04.3-0neon
 _ZN6Minuet13ISoundBackend12pitchChangedEa@Base 16.04.3-0neon
 _ZN6Minuet13ISoundBackend12stateChangedENS0_5StateE@Base 16.04.3-0neon
 _ZN6Minuet13ISoundBackend12tempoChangedEh@Base 16.04.3-0neon
 _ZN6Minuet13ISoundBackend13volumeChangedEh@Base 16.04.3-0neon
 _ZN6Minuet13ISoundBackend15playModeChangedE7QString@Base 16.04.3-0neon
 _ZN6Minuet13ISoundBackend16setPlaybackLabelERK7QString@Base 16.04.3-0neon
 _ZN6Minuet13ISoundBackend16staticMetaObjectE@Base 16.04.3-0neon
 _ZN6Minuet13ISoundBackend20playbackLabelChangedE7QString@Base 16.04.3-0neon
 _ZN6Minuet13ISoundBackend8setStateENS0_5StateE@Base 16.04.3-0neon
 _ZN6Minuet13ISoundBackendC1EP7QObject@Base 16.04.3-0neon
 _ZN6Minuet13ISoundBackendC2EP7QObject@Base 16.04.3-0neon
 _ZN6Minuet13ISoundBackendD0Ev@Base 16.04.3-0neon
 _ZN6Minuet13ISoundBackendD1Ev@Base 16.04.3-0neon
 _ZN6Minuet13ISoundBackendD2Ev@Base 16.04.3-0neon
 _ZN6Minuet13IUiController11qt_metacallEN11QMetaObject4CallEiPPv@Base 16.04.3-0neon
 _ZN6Minuet13IUiController11qt_metacastEPKc@Base 16.04.3-0neon
 _ZN6Minuet13IUiController16staticMetaObjectE@Base 16.04.3-0neon
 _ZN6Minuet13IUiControllerC1EP7QObject@Base 16.04.3-0neon
 _ZN6Minuet13IUiControllerC2EP7QObject@Base 16.04.3-0neon
 _ZN6Minuet13IUiControllerD0Ev@Base 16.04.3-0neon
 _ZN6Minuet13IUiControllerD1Ev@Base 16.04.3-0neon
 _ZN6Minuet13IUiControllerD2Ev@Base 16.04.3-0neon
 _ZN6Minuet17IPluginController11qt_metacallEN11QMetaObject4CallEiPPv@Base 16.04.3-0neon
 _ZN6Minuet17IPluginController11qt_metacastEPKc@Base 16.04.3-0neon
 _ZN6Minuet17IPluginController16staticMetaObjectE@Base 16.04.3-0neon
 _ZN6Minuet17IPluginControllerC1EP7QObject@Base 16.04.3-0neon
 _ZN6Minuet17IPluginControllerC2EP7QObject@Base 16.04.3-0neon
 _ZN6Minuet17IPluginControllerD0Ev@Base 16.04.3-0neon
 _ZN6Minuet17IPluginControllerD1Ev@Base 16.04.3-0neon
 _ZN6Minuet17IPluginControllerD2Ev@Base 16.04.3-0neon
 _ZN6Minuet19IExerciseController11qt_metacallEN11QMetaObject4CallEiPPv@Base 16.04.3-0neon
 _ZN6Minuet19IExerciseController11qt_metacastEPKc@Base 16.04.3-0neon
 _ZN6Minuet19IExerciseController16staticMetaObjectE@Base 16.04.3-0neon
 _ZN6Minuet19IExerciseController18setCurrentExerciseE4QMapI7QString8QVariantE@Base 16.04.3-0neon
 _ZN6Minuet19IExerciseController22currentExerciseChangedE4QMapI7QString8QVariantE@Base 16.04.3-0neon
 _ZN6Minuet19IExerciseController30selectedExerciseOptionsChangedE10QJsonArray@Base 16.04.3-0neon
 _ZN6Minuet19IExerciseControllerC1EP7QObject@Base 16.04.3-0neon
 _ZN6Minuet19IExerciseControllerC2EP7QObject@Base 16.04.3-0neon
 _ZN6Minuet19IExerciseControllerD0Ev@Base 16.04.3-0neon
 _ZN6Minuet19IExerciseControllerD1Ev@Base 16.04.3-0neon
 _ZN6Minuet19IExerciseControllerD2Ev@Base 16.04.3-0neon
 _ZN6Minuet5ICore11qt_metacallEN11QMetaObject4CallEiPPv@Base 16.04.3-0neon
 _ZN6Minuet5ICore11qt_metacastEPKc@Base 16.04.3-0neon
 _ZN6Minuet5ICore16staticMetaObjectE@Base 16.04.3-0neon
 _ZN6Minuet5ICore19soundBackendChangedEPNS_13ISoundBackendE@Base 16.04.3-0neon
 _ZN6Minuet5ICore4selfEv@Base 16.04.3-0neon
 _ZN6Minuet5ICore6m_selfE@Base 16.04.3-0neon
 _ZN6Minuet5ICoreC1EP7QObject@Base 16.04.3-0neon
 _ZN6Minuet5ICoreC2EP7QObject@Base 16.04.3-0neon
 _ZN6Minuet5ICoreD0Ev@Base 16.04.3-0neon
 _ZN6Minuet5ICoreD1Ev@Base 16.04.3-0neon
 _ZN6Minuet5ICoreD2Ev@Base 16.04.3-0neon
 _ZN6Minuet7IPlugin11qt_metacallEN11QMetaObject4CallEiPPv@Base 16.04.3-0neon
 _ZN6Minuet7IPlugin11qt_metacastEPKc@Base 16.04.3-0neon
 _ZN6Minuet7IPlugin16staticMetaObjectE@Base 16.04.3-0neon
 _ZN6Minuet7IPluginC1EP7QObject@Base 16.04.3-0neon
 _ZN6Minuet7IPluginC2EP7QObject@Base 16.04.3-0neon
 _ZN6Minuet7IPluginD0Ev@Base 16.04.3-0neon
 _ZN6Minuet7IPluginD1Ev@Base 16.04.3-0neon
 _ZN6Minuet7IPluginD2Ev@Base 16.04.3-0neon
 _ZNK6Minuet13ISoundBackend10metaObjectEv@Base 16.04.3-0neon
 _ZNK6Minuet13ISoundBackend13playbackLabelEv@Base 16.04.3-0neon
 _ZNK6Minuet13ISoundBackend5stateEv@Base 16.04.3-0neon
 _ZNK6Minuet13IUiController10metaObjectEv@Base 16.04.3-0neon
 _ZNK6Minuet17IPluginController10metaObjectEv@Base 16.04.3-0neon
 _ZNK6Minuet19IExerciseController10metaObjectEv@Base 16.04.3-0neon
 _ZNK6Minuet19IExerciseController23selectedExerciseOptionsEv@Base 16.04.3-0neon
 _ZNK6Minuet5ICore10metaObjectEv@Base 16.04.3-0neon
 _ZNK6Minuet7IPlugin10metaObjectEv@Base 16.04.3-0neon
 _ZTIN6Minuet13ISoundBackendE@Base 16.04.3-0neon
 _ZTIN6Minuet13IUiControllerE@Base 16.04.3-0neon
 _ZTIN6Minuet17IPluginControllerE@Base 16.04.3-0neon
 _ZTIN6Minuet19IExerciseControllerE@Base 16.04.3-0neon
 _ZTIN6Minuet5ICoreE@Base 16.04.3-0neon
 _ZTIN6Minuet7IPluginE@Base 16.04.3-0neon
 _ZTSN6Minuet13ISoundBackendE@Base 16.04.3-0neon
 _ZTSN6Minuet13IUiControllerE@Base 16.04.3-0neon
 _ZTSN6Minuet17IPluginControllerE@Base 16.04.3-0neon
 _ZTSN6Minuet19IExerciseControllerE@Base 16.04.3-0neon
 _ZTSN6Minuet5ICoreE@Base 16.04.3-0neon
 _ZTSN6Minuet7IPluginE@Base 16.04.3-0neon
 _ZTVN6Minuet13ISoundBackendE@Base 16.04.3-0neon
 _ZTVN6Minuet13IUiControllerE@Base 16.04.3-0neon
 _ZTVN6Minuet17IPluginControllerE@Base 16.04.3-0neon
 _ZTVN6Minuet19IExerciseControllerE@Base 16.04.3-0neon
 _ZTVN6Minuet5ICoreE@Base 16.04.3-0neon
 _ZTVN6Minuet7IPluginE@Base 16.04.3-0neon
